; Function Attrs: nounwind sspstrong uwtable
define internal noundef i64 @sys_warning_1(i64 noundef %0) #0 {
  %2 = inttoptr i64 %0 to ptr
  %3 = getelementptr inbounds nuw i8, ptr %2, i64 16
  %4 = load ptr, ptr %3, align 8, !tbaa !146
  %5 = load ptr, ptr %2, align 8, !tbaa !143
  %6 = getelementptr inbounds nuw i8, ptr %2, i64 8
  %7 = load ptr, ptr %6, align 8, !tbaa !145
  tail call void (ptr, ptr, ...) @rb_sys_enc_warning(ptr noundef %4, ptr noundef nonnull @.str.51, ptr noundef %5, ptr noundef %7) #22
  ret i64 4
}